; Function Attrs: mustprogress nounwind uwtable
define dso_local noundef ptr @_ZNK4llvm13CodeGenTarget12getAsmParserEv(ptr nocapture noundef nonnull readonly align 8 dereferenceable(724) %0) local_unnamed_addr #0 align 2 {
  %2 = alloca %"class.std::vector", align 8
  %3 = alloca %"class.llvm::Twine", align 8
  %4 = alloca %"class.llvm::Twine", align 8
  %5 = alloca %"class.llvm::Twine", align 8
  %6 = alloca %"class.llvm::Twine", align 8
  %7 = alloca %"class.llvm::Twine", align 8
  %8 = getelementptr inbounds nuw i8, ptr %0, i64 8
  %9 = load ptr, ptr %8, align 8
  call void @_ZNK4llvm6Record20getValueAsListOfDefsENS_9StringRefE(ptr dead_on_unwind nonnull writable sret(%"class.std::vector") align 8 %2, ptr noundef nonnull align 8 dereferenceable(192) %9, ptr nonnull @.str.262, i64 15) #21
  %10 = load i32, ptr getelementptr inbounds (i8, ptr @_ZL12AsmParserNum, i64 128), align 8
  %11 = zext i32 %10 to i64
  %12 = getelementptr inbounds nuw i8, ptr %2, i64 8
  %13 = load ptr, ptr %12, align 8
  %14 = load ptr, ptr %2, align 8
  %15 = ptrtoint ptr %13 to i64
  %16 = ptrtoint ptr %14 to i64
  %17 = sub i64 %15, %16
  %18 = ashr exact i64 %17, 3
  %.not = icmp ugt i64 %18, %11
  br i1 %.not, label %_ZNSt6vectorIPN4llvm6RecordESaIS2_EED2Ev.exit, label %19

19:                                               ; preds = %1
  %20 = getelementptr inbounds nuw i8, ptr %5, i64 32
  %21 = getelementptr inbounds nuw i8, ptr %5, i64 33
  store i8 1, ptr %21, align 1
  store ptr @.str.263, ptr %5, align 8
  store i8 3, ptr %20, align 8
  %22 = getelementptr inbounds nuw i8, ptr %6, i64 32
  store i8 9, ptr %22, align 8
  %23 = getelementptr inbounds nuw i8, ptr %6, i64 33
  store i8 1, ptr %23, align 1
  store i32 %10, ptr %6, align 8
  call void @_ZN4llvmplERKNS_5TwineES2_(ptr dead_on_unwind nonnull writable sret(%"class.llvm::Twine") align 8 %4, ptr noundef nonnull align 8 dereferenceable(34) %5, ptr noundef nonnull align 8 dereferenceable(34) %6)
  %24 = getelementptr inbounds nuw i8, ptr %7, i64 32
  %25 = getelementptr inbounds nuw i8, ptr %7, i64 33
  store i8 1, ptr %25, align 1
  store ptr @.str.264, ptr %7, align 8
  store i8 3, ptr %24, align 8
  call void @_ZN4llvmplERKNS_5TwineES2_(ptr dead_on_unwind nonnull writable sret(%"class.llvm::Twine") align 8 %3, ptr noundef nonnull align 8 dereferenceable(34) %4, ptr noundef nonnull align 8 dereferenceable(34) %7)
  call void @_ZN4llvm15PrintFatalErrorERKNS_5TwineE(ptr noundef nonnull align 8 dereferenceable(34) %3) #22
  unreachable

_ZNSt6vectorIPN4llvm6RecordESaIS2_EED2Ev.exit:    ; preds = %1
  %26 = getelementptr inbounds ptr, ptr %14, i64 %11
  %27 = load ptr, ptr %26, align 8
  %28 = getelementptr inbounds nuw i8, ptr %2, i64 16
  %29 = load ptr, ptr %28, align 8
  %30 = ptrtoint ptr %29 to i64
  %31 = sub i64 %30, %16
  call void @_ZdlPvm(ptr noundef nonnull %14, i64 noundef %31) #23
  ret ptr %27
}